target datalayout = "e-m:e-p270:32:32-p271:32:32-p272:64:64-i64:64-i128:128-f80:128-n8:16:32:64-S128"
target triple = "x86_64-pc-linux-gnu"

@.str.17 = private unnamed_addr constant [5 x i8] c".cdl\00", align 1
@.str.18 = private unnamed_addr constant [2 x i8] c"r\00", align 1

; Function Attrs: nounwind uwtable
define i32 @If_LibBoxLoad(ptr noundef %0) #0 {
  %2 = alloca i32, align 4
  %3 = alloca ptr, align 8
  %4 = alloca ptr, align 8
  %5 = alloca ptr, align 8
  %6 = alloca ptr, align 8
  %7 = alloca i32, align 4
  store ptr %0, ptr %3, align 8, !tbaa !3
  call void @llvm.lifetime.start.p0(i64 8, ptr %4) #10
  call void @llvm.lifetime.start.p0(i64 8, ptr %5) #10
  call void @llvm.lifetime.start.p0(i64 8, ptr %6) #10
  %8 = load ptr, ptr %3, align 8, !tbaa !3
  %9 = call ptr @Extra_FileNameGenericAppend(ptr noundef %8, ptr noundef @.str.17)
  store ptr %9, ptr %6, align 8, !tbaa !3
  %10 = load ptr, ptr %6, align 8, !tbaa !3
  %11 = call noalias ptr @fopen(ptr noundef %10, ptr noundef @.str.18)
  store ptr %11, ptr %4, align 8, !tbaa !38
  %12 = load ptr, ptr %4, align 8, !tbaa !38
  %13 = icmp eq ptr %12, null
  br i1 %13, label %14, label %15

14:                                               ; preds = %1
  store i32 0, ptr %2, align 4
  store i32 1, ptr %7, align 4
  br label %22

15:                                               ; preds = %1
  %16 = load ptr, ptr %4, align 8, !tbaa !38
  %17 = call i32 @fclose(ptr noundef %16)
  %18 = load ptr, ptr %6, align 8, !tbaa !3
  %19 = call ptr @If_LibBoxRead2(ptr noundef %18)
  store ptr %19, ptr %5, align 8, !tbaa !22
  %20 = call ptr (...) @Abc_FrameReadLibBox()
  call void @If_LibBoxFree(ptr noundef %20)
  %21 = load ptr, ptr %5, align 8, !tbaa !22
  call void @Abc_FrameSetLibBox(ptr noundef %21)
  store i32 1, ptr %2, align 4
  store i32 1, ptr %7, align 4
  br label %22

22:                                               ; preds = %15, %14
  call void @llvm.lifetime.end.p0(i64 8, ptr %6) #10
  call void @llvm.lifetime.end.p0(i64 8, ptr %5) #10
  call void @llvm.lifetime.end.p0(i64 8, ptr %4) #10
  %23 = load i32, ptr %2, align 4
  ret i32 %23
}