; Function Attrs: nounwind uwtable
define range(i32 0, 2) i32 @If_LibBoxLoad(ptr noundef %0) local_unnamed_addr #5 {
  %2 = tail call ptr @Extra_FileNameGenericAppend(ptr noundef %0, ptr noundef nonnull @.str.17) #19
  %3 = tail call noalias ptr @fopen(ptr noundef %2, ptr noundef nonnull @.str.18)
  %4 = icmp eq ptr %3, null
  br i1 %4, label %9, label %5

5:                                                ; preds = %1
  %6 = tail call i32 @fclose(ptr noundef nonnull %3)
  %7 = tail call ptr @If_LibBoxRead2(ptr noundef %2)
  %8 = tail call ptr (...) @Abc_FrameReadLibBox() #19
  tail call void @If_LibBoxFree(ptr noundef %8)
  tail call void @Abc_FrameSetLibBox(ptr noundef %7) #19
  br label %9

9:                                                ; preds = %1, %5
  %.0 = phi i32 [ 1, %5 ], [ 0, %1 ]
  ret i32 %.0
}